target datalayout = "e-m:e-p270:32:32-p271:32:32-p272:64:64-i64:64-i128:128-f80:128-n8:16:32:64-S128"
target triple = "x86_64-pc-linux-gnu"

%struct.SwsInternal = type { %struct.SwsContext, ptr, ptr, ptr, ptr, i32, [2 x ptr], i32, i32, ptr, i32, i32, i32, i32, i32, i32, i32, i32, i32, i32, i32, i32, i32, i32, i32, i32, i32, i32, ptr, ptr, %struct.RangeList, [3 x ptr], [2 x [4 x i32]], [2 x [4 x ptr]], i32, double, i32, ptr, ptr, i32, [2 x i32], i32, ptr, ptr, [256 x i32], [256 x i32], [256 x float], i32, i32, ptr, i32, ptr, ptr, ptr, ptr, ptr, ptr, ptr, ptr, i32, i32, i32, i32, i32, i32, ptr, ptr, i32, i32, i32, ptr, [8 x i8], [1280 x i32], [1280 x ptr], [1280 x ptr], [1280 x ptr], [176 x i32], [4 x ptr], i32, i32, i32, [4 x i32], [4 x i32], i32, i32, i32, i32, i32, i32, i32, i32, i32, i32, i64, i64, i64, i64, i64, i64, i64, i64, i64, i64, i64, [1024 x i32], [1024 x i32], i32, i64, i64, i64, i64, i64, [1024 x i32], i64, i64, [8 x i16], [8 x i32], ptr, ptr, i32, ptr, ptr, ptr, ptr, [3 x [4 x i16]], [3 x [4 x i16]], ptr, ptr, ptr, ptr, ptr, ptr, ptr, ptr, ptr, ptr, ptr, ptr, ptr, ptr, ptr, ptr, ptr, ptr, ptr, ptr, i32, i32, i64, i64, i32, ptr, i32, ptr, i32, i32, i32, i32, i32, ptr }
%struct.SwsContext = type { ptr, ptr, i32, [2 x double], i32, i32, i32, i32, i32, i32, i32, i32, i32, i32, i32, i32, i32, i32, i32, i32, i32 }
%struct.RangeList = type { ptr, i32, i32 }
%struct.AVPixFmtDescriptor = type { ptr, i8, i8, i8, i64, [4 x %struct.AVComponentDescriptor], ptr }
%struct.AVComponentDescriptor = type { i32, i32, i32, i32, i32 }

@.str.1 = private unnamed_addr constant [30 x i8] c"Assertion %s failed at %s:%d\0A\00", align 1
@.str.12 = private unnamed_addr constant [5 x i8] c"desc\00", align 1
@.str.13 = private unnamed_addr constant [30 x i8] c"libswscale/swscale_internal.h\00", align 1

; Function Attrs: alwaysinline nounwind uwtable
define internal i32 @isAnyRGB(i32 noundef %0) #3 {
  %2 = alloca i32, align 4
  %3 = alloca ptr, align 8
  store i32 %0, ptr %2, align 4, !tbaa !14
  call void @llvm.lifetime.start.p0(i64 8, ptr %3) #11
  %4 = load i32, ptr %2, align 4, !tbaa !14
  %5 = call ptr @av_pix_fmt_desc_get(i32 noundef %4)
  store ptr %5, ptr %3, align 8, !tbaa !83
  br label %6

6:                                                ; preds = %1
  %7 = load ptr, ptr %3, align 8, !tbaa !83
  %8 = icmp ne ptr %7, null
  br i1 %8, label %10, label %9

9:                                                ; preds = %6
  call void (ptr, i32, ptr, ...) @av_log(ptr noundef null, i32 noundef 0, ptr noundef @.str.1, ptr noundef @.str.12, ptr noundef @.str.13, i32 noundef 859)
  call void @abort() #12
  unreachable

10:                                               ; preds = %6
  br label %11

11:                                               ; preds = %10
  br label %12

12:                                               ; preds = %11
  %13 = load ptr, ptr %3, align 8, !tbaa !83
  %14 = getelementptr inbounds nuw %struct.AVPixFmtDescriptor, ptr %13, i32 0, i32 4
  %15 = load i64, ptr %14, align 8, !tbaa !87
  %16 = and i64 %15, 32
  %17 = icmp ne i64 %16, 0
  br i1 %17, label %24, label %18

18:                                               ; preds = %12
  %19 = load i32, ptr %2, align 4, !tbaa !14
  %20 = icmp eq i32 %19, 10
  br i1 %20, label %24, label %21

21:                                               ; preds = %18
  %22 = load i32, ptr %2, align 4, !tbaa !14
  %23 = icmp eq i32 %22, 9
  br label %24

24:                                               ; preds = %21, %18, %12
  %25 = phi i1 [ true, %18 ], [ true, %12 ], [ %23, %21 ]
  %26 = zext i1 %25 to i32
  call void @llvm.lifetime.end.p0(i64 8, ptr %3) #11
  ret i32 %26
}

; Function Attrs: nounwind uwtable
define internal void @hScale16To19_c(ptr noundef %0, ptr noundef %1, i32 noundef %2, ptr noundef %3, ptr noundef %4, ptr noundef %5, i32 noundef %6) #0 {
  %8 = alloca ptr, align 8
  %9 = alloca ptr, align 8
  %10 = alloca i32, align 4
  %11 = alloca ptr, align 8
  %12 = alloca ptr, align 8
  %13 = alloca ptr, align 8
  %14 = alloca i32, align 4
  %15 = alloca ptr, align 8
  %16 = alloca i32, align 4
  %17 = alloca ptr, align 8
  %18 = alloca ptr, align 8
  %19 = alloca i32, align 4
  %20 = alloca i32, align 4
  %21 = alloca i32, align 4
  %22 = alloca i32, align 4
  %23 = alloca i32, align 4
  store ptr %0, ptr %8, align 8, !tbaa !4
  store ptr %1, ptr %9, align 8, !tbaa !104
  store i32 %2, ptr %10, align 4, !tbaa !14
  store ptr %3, ptr %11, align 8, !tbaa !60
  store ptr %4, ptr %12, align 8, !tbaa !104
  store ptr %5, ptr %13, align 8, !tbaa !12
  store i32 %6, ptr %14, align 4, !tbaa !14
  call void @llvm.lifetime.start.p0(i64 8, ptr %15) #11
  %24 = load ptr, ptr %8, align 8, !tbaa !4
  %25 = getelementptr inbounds nuw %struct.SwsInternal, ptr %24, i32 0, i32 0
  %26 = getelementptr inbounds nuw %struct.SwsContext, ptr %25, i32 0, i32 12
  %27 = load i32, ptr %26, align 8, !tbaa !49
  %28 = call ptr @av_pix_fmt_desc_get(i32 noundef %27)
  store ptr %28, ptr %15, align 8, !tbaa !83
  call void @llvm.lifetime.start.p0(i64 4, ptr %16) #11
  call void @llvm.lifetime.start.p0(i64 8, ptr %17) #11
  %29 = load ptr, ptr %9, align 8, !tbaa !104
  store ptr %29, ptr %17, align 8, !tbaa !12
  call void @llvm.lifetime.start.p0(i64 8, ptr %18) #11
  %30 = load ptr, ptr %11, align 8, !tbaa !60
  store ptr %30, ptr %18, align 8, !tbaa !104
  call void @llvm.lifetime.start.p0(i64 4, ptr %19) #11
  %31 = load ptr, ptr %15, align 8, !tbaa !83
  %32 = getelementptr inbounds nuw %struct.AVPixFmtDescriptor, ptr %31, i32 0, i32 5
  %33 = getelementptr inbounds [4 x %struct.AVComponentDescriptor], ptr %32, i64 0, i64 0
  %34 = getelementptr inbounds nuw %struct.AVComponentDescriptor, ptr %33, i32 0, i32 4
  %35 = load i32, ptr %34, align 8, !tbaa !85
  %36 = sub nsw i32 %35, 1
  store i32 %36, ptr %19, align 4, !tbaa !14
  call void @llvm.lifetime.start.p0(i64 4, ptr %20) #11
  %37 = load i32, ptr %19, align 4, !tbaa !14
  %38 = sub nsw i32 %37, 4
  store i32 %38, ptr %20, align 4, !tbaa !14
  %39 = load ptr, ptr %8, align 8, !tbaa !4
  %40 = getelementptr inbounds nuw %struct.SwsInternal, ptr %39, i32 0, i32 0
  %41 = getelementptr inbounds nuw %struct.SwsContext, ptr %40, i32 0, i32 12
  %42 = load i32, ptr %41, align 8, !tbaa !49
  %43 = call i32 @isAnyRGB(i32 noundef %42)
  %44 = icmp ne i32 %43, 0
  br i1 %44, label %51, label %45

45:                                               ; preds = %7
  %46 = load ptr, ptr %8, align 8, !tbaa !4
  %47 = getelementptr inbounds nuw %struct.SwsInternal, ptr %46, i32 0, i32 0
  %48 = getelementptr inbounds nuw %struct.SwsContext, ptr %47, i32 0, i32 12
  %49 = load i32, ptr %48, align 8, !tbaa !49
  %50 = icmp eq i32 %49, 11
  br i1 %50, label %51, label %59

51:                                               ; preds = %45, %7
  %52 = load ptr, ptr %15, align 8, !tbaa !83
  %53 = getelementptr inbounds nuw %struct.AVPixFmtDescriptor, ptr %52, i32 0, i32 5
  %54 = getelementptr inbounds [4 x %struct.AVComponentDescriptor], ptr %53, i64 0, i64 0
  %55 = getelementptr inbounds nuw %struct.AVComponentDescriptor, ptr %54, i32 0, i32 4
  %56 = load i32, ptr %55, align 8, !tbaa !85
  %57 = icmp slt i32 %56, 16
  br i1 %57, label %58, label %59

58:                                               ; preds = %51
  store i32 9, ptr %20, align 4, !tbaa !14
  br label %67

59:                                               ; preds = %51, %45
  %60 = load ptr, ptr %15, align 8, !tbaa !83
  %61 = getelementptr inbounds nuw %struct.AVPixFmtDescriptor, ptr %60, i32 0, i32 4
  %62 = load i64, ptr %61, align 8, !tbaa !87
  %63 = and i64 %62, 512
  %64 = icmp ne i64 %63, 0
  br i1 %64, label %65, label %66

65:                                               ; preds = %59
  store i32 11, ptr %20, align 4, !tbaa !14
  br label %66

66:                                               ; preds = %65, %59
  br label %67

67:                                               ; preds = %66, %58
  store i32 0, ptr %16, align 4, !tbaa !14
  br label %68

68:                                               ; preds = %123, %67
  %69 = load i32, ptr %16, align 4, !tbaa !14
  %70 = load i32, ptr %10, align 4, !tbaa !14
  %71 = icmp slt i32 %69, %70
  br i1 %71, label %72, label %126

72:                                               ; preds = %68
  call void @llvm.lifetime.start.p0(i64 4, ptr %21) #11
  call void @llvm.lifetime.start.p0(i64 4, ptr %22) #11
  %73 = load ptr, ptr %13, align 8, !tbaa !12
  %74 = load i32, ptr %16, align 4, !tbaa !14
  %75 = sext i32 %74 to i64
  %76 = getelementptr inbounds i32, ptr %73, i64 %75
  %77 = load i32, ptr %76, align 4, !tbaa !14
  store i32 %77, ptr %22, align 4, !tbaa !14
  call void @llvm.lifetime.start.p0(i64 4, ptr %23) #11
  store i32 0, ptr %23, align 4, !tbaa !14
  store i32 0, ptr %21, align 4, !tbaa !14
  br label %78

78:                                               ; preds = %104, %72
  %79 = load i32, ptr %21, align 4, !tbaa !14
  %80 = load i32, ptr %14, align 4, !tbaa !14
  %81 = icmp slt i32 %79, %80
  br i1 %81, label %82, label %107

82:                                               ; preds = %78
  %83 = load ptr, ptr %18, align 8, !tbaa !104
  %84 = load i32, ptr %22, align 4, !tbaa !14
  %85 = load i32, ptr %21, align 4, !tbaa !14
  %86 = add nsw i32 %84, %85
  %87 = sext i32 %86 to i64
  %88 = getelementptr inbounds i16, ptr %83, i64 %87
  %89 = load i16, ptr %88, align 2, !tbaa !102
  %90 = zext i16 %89 to i32
  %91 = load ptr, ptr %12, align 8, !tbaa !104
  %92 = load i32, ptr %14, align 4, !tbaa !14
  %93 = load i32, ptr %16, align 4, !tbaa !14
  %94 = mul nsw i32 %92, %93
  %95 = load i32, ptr %21, align 4, !tbaa !14
  %96 = add nsw i32 %94, %95
  %97 = sext i32 %96 to i64
  %98 = getelementptr inbounds i16, ptr %91, i64 %97
  %99 = load i16, ptr %98, align 2, !tbaa !102
  %100 = sext i16 %99 to i32
  %101 = mul nsw i32 %90, %100
  %102 = load i32, ptr %23, align 4, !tbaa !14
  %103 = add nsw i32 %102, %101
  store i32 %103, ptr %23, align 4, !tbaa !14
  br label %104

104:                                              ; preds = %82
  %105 = load i32, ptr %21, align 4, !tbaa !14
  %106 = add nsw i32 %105, 1
  store i32 %106, ptr %21, align 4, !tbaa !14
  br label %78, !llvm.loop !223

107:                                              ; preds = %78
  %108 = load i32, ptr %23, align 4, !tbaa !14
  %109 = load i32, ptr %20, align 4, !tbaa !14
  %110 = ashr i32 %108, %109
  %111 = icmp sgt i32 %110, 524287
  br i1 %111, label %112, label %113

112:                                              ; preds = %107
  br label %117

113:                                              ; preds = %107
  %114 = load i32, ptr %23, align 4, !tbaa !14
  %115 = load i32, ptr %20, align 4, !tbaa !14
  %116 = ashr i32 %114, %115
  br label %117

117:                                              ; preds = %113, %112
  %118 = phi i32 [ 524287, %112 ], [ %116, %113 ]
  %119 = load ptr, ptr %17, align 8, !tbaa !12
  %120 = load i32, ptr %16, align 4, !tbaa !14
  %121 = sext i32 %120 to i64
  %122 = getelementptr inbounds i32, ptr %119, i64 %121
  store i32 %118, ptr %122, align 4, !tbaa !14
  call void @llvm.lifetime.end.p0(i64 4, ptr %23) #11
  call void @llvm.lifetime.end.p0(i64 4, ptr %22) #11
  call void @llvm.lifetime.end.p0(i64 4, ptr %21) #11
  br label %123

123:                                              ; preds = %117
  %124 = load i32, ptr %16, align 4, !tbaa !14
  %125 = add nsw i32 %124, 1
  store i32 %125, ptr %16, align 4, !tbaa !14
  br label %68, !llvm.loop !224

126:                                              ; preds = %68
  call void @llvm.lifetime.end.p0(i64 4, ptr %20) #11
  call void @llvm.lifetime.end.p0(i64 4, ptr %19) #11
  call void @llvm.lifetime.end.p0(i64 8, ptr %18) #11
  call void @llvm.lifetime.end.p0(i64 8, ptr %17) #11
  call void @llvm.lifetime.end.p0(i64 4, ptr %16) #11
  call void @llvm.lifetime.end.p0(i64 8, ptr %15) #11
  ret void
}