; Function Attrs: nounwind uwtable
define internal void @hScale16To19_c(ptr noundef readonly captures(none) %0, ptr noundef writeonly captures(none) %1, i32 noundef %2, ptr noundef readonly captures(none) %3, ptr noundef readonly captures(none) %4, ptr noundef readonly captures(none) %5, i32 noundef %6) #0 {
  %8 = getelementptr inbounds nuw i8, ptr %0, i64 72
  %9 = load i32, ptr %8, align 8, !tbaa !43
  %10 = tail call ptr @av_pix_fmt_desc_get(i32 noundef %9) #11
  %11 = getelementptr inbounds nuw i8, ptr %10, i64 40
  %12 = load i32, ptr %11, align 8, !tbaa !44
  %13 = add nsw i32 %12, -5
  %14 = load i32, ptr %8, align 8, !tbaa !43
  %15 = tail call ptr @av_pix_fmt_desc_get(i32 noundef %14) #11
  %.not.i = icmp eq ptr %15, null
  br i1 %.not.i, label %16, label %isAnyRGB.exit

16:                                               ; preds = %7
  tail call void (ptr, i32, ptr, ...) @av_log(ptr noundef null, i32 noundef 0, ptr noundef nonnull @.str.1, ptr noundef nonnull @.str.12, ptr noundef nonnull @.str.13, i32 noundef 859) #11
  tail call void @abort() #12
  unreachable

isAnyRGB.exit:                                    ; preds = %7
  %17 = getelementptr inbounds nuw i8, ptr %15, i64 16
  %18 = load i64, ptr %17, align 8, !tbaa !57
  %19 = and i64 %18, 32
  %20 = icmp eq i64 %19, 0
  %21 = add i32 %14, -11
  %22 = icmp ult i32 %21, -2
  %narrow.not = and i1 %22, %20
  br i1 %narrow.not, label %23, label %26

23:                                               ; preds = %isAnyRGB.exit
  %24 = load i32, ptr %8, align 8, !tbaa !43
  %25 = icmp eq i32 %24, 11
  br i1 %25, label %26, label %29

26:                                               ; preds = %23, %isAnyRGB.exit
  %27 = load i32, ptr %11, align 8, !tbaa !44
  %28 = icmp slt i32 %27, 16
  br i1 %28, label %33, label %29

29:                                               ; preds = %26, %23
  %30 = getelementptr inbounds nuw i8, ptr %10, i64 16
  %31 = load i64, ptr %30, align 8, !tbaa !57
  %32 = and i64 %31, 512
  %.not34 = icmp eq i64 %32, 0
  %spec.select = select i1 %.not34, i32 %13, i32 11
  br label %33

33:                                               ; preds = %29, %26
  %.032 = phi i32 [ 9, %26 ], [ %spec.select, %29 ]
  %34 = icmp sgt i32 %2, 0
  br i1 %34, label %.lr.ph41, label %._crit_edge42

.lr.ph41:                                         ; preds = %33
  %35 = icmp sgt i32 %6, 0
  br i1 %35, label %.lr.ph.us.preheader, label %.lr.ph41.split.preheader

.lr.ph41.split.preheader:                         ; preds = %.lr.ph41
  %36 = zext nneg i32 %2 to i64
  %37 = shl nuw nsw i64 %36, 2
  tail call void @llvm.memset.p0.i64(ptr align 4 %1, i8 0, i64 %37, i1 false), !tbaa !49
  br label %._crit_edge42

.lr.ph.us.preheader:                              ; preds = %.lr.ph41
  %38 = zext nneg i32 %6 to i64
  %wide.trip.count49 = zext nneg i32 %2 to i64
  %wide.trip.count = zext nneg i32 %6 to i64
  br label %.lr.ph.us

.lr.ph.us:                                        ; preds = %.lr.ph.us.preheader, %._crit_edge.us
  %indvars.iv46 = phi i64 [ 0, %.lr.ph.us.preheader ], [ %indvars.iv.next47, %._crit_edge.us ]
  %39 = getelementptr inbounds nuw i32, ptr %5, i64 %indvars.iv46
  %40 = load i32, ptr %39, align 4, !tbaa !49
  %41 = mul nuw nsw i64 %indvars.iv46, %38
  %42 = sext i32 %40 to i64
  %invariant.gep = getelementptr i16, ptr %3, i64 %42
  %invariant.gep51 = getelementptr inbounds nuw i16, ptr %4, i64 %41
  br label %43

43:                                               ; preds = %.lr.ph.us, %43
  %indvars.iv = phi i64 [ 0, %.lr.ph.us ], [ %indvars.iv.next, %43 ]
  %.038.us = phi i32 [ 0, %.lr.ph.us ], [ %49, %43 ]
  %gep = getelementptr i16, ptr %invariant.gep, i64 %indvars.iv
  %44 = load i16, ptr %gep, align 2, !tbaa !94
  %45 = zext i16 %44 to i32
  %gep52 = getelementptr inbounds nuw i16, ptr %invariant.gep51, i64 %indvars.iv
  %46 = load i16, ptr %gep52, align 2, !tbaa !94
  %47 = sext i16 %46 to i32
  %48 = mul nsw i32 %47, %45
  %49 = add nsw i32 %48, %.038.us
  %indvars.iv.next = add nuw nsw i64 %indvars.iv, 1
  %exitcond.not = icmp eq i64 %indvars.iv.next, %wide.trip.count
  br i1 %exitcond.not, label %._crit_edge.us, label %43, !llvm.loop !211

._crit_edge.us:                                   ; preds = %43
  %50 = ashr i32 %49, %.032
  %51 = tail call i32 @llvm.smin.i32(i32 %50, i32 524287)
  %52 = getelementptr inbounds nuw i32, ptr %1, i64 %indvars.iv46
  store i32 %51, ptr %52, align 4, !tbaa !49
  %indvars.iv.next47 = add nuw nsw i64 %indvars.iv46, 1
  %exitcond50.not = icmp eq i64 %indvars.iv.next47, %wide.trip.count49
  br i1 %exitcond50.not, label %._crit_edge42, label %.lr.ph.us, !llvm.loop !212

._crit_edge42:                                    ; preds = %._crit_edge.us, %.lr.ph41.split.preheader, %33
  ret void
}